; Function Attrs: mustprogress nofree norecurse nosync nounwind willreturn memory(write, argmem: readwrite, inaccessiblemem: none) uwtable
define hidden void @_ZN6hermes3sem12BlockContextD2Ev(ptr noundef nonnull readonly align 8 captures(none) dereferenceable(40) %this) unnamed_addr #8 align 2 {
entry:
  %previousScopedDecls_ = getelementptr inbounds nuw i8, ptr %this, i64 16
  %0 = load ptr, ptr %previousScopedDecls_, align 8
  %curFunction_ = getelementptr inbounds nuw i8, ptr %this, i64 8
  %1 = load ptr, ptr %curFunction_, align 8
  %scopedDecls = getelementptr inbounds nuw i8, ptr %1, i64 48
  store ptr %0, ptr %scopedDecls, align 8
  %previousScopedClosures_ = getelementptr inbounds nuw i8, ptr %this, i64 24
  %2 = load ptr, ptr %previousScopedClosures_, align 8
  %3 = load ptr, ptr %curFunction_, align 8
  %scopedClosures = getelementptr inbounds nuw i8, ptr %3, i64 56
  store ptr %2, ptr %scopedClosures, align 8
  ret void
}